; Function Attrs: mustprogress uwtable
define hidden void @_ZN4cvc58internal6theory2bv24BitVectorExtractTypeRule14preComputeTypeEPNS0_11NodeManagerENS0_12NodeTemplateILb0EEE(ptr dead_on_unwind noalias writable sret(%"class.cvc5::internal::TypeNode") align 8 %0, ptr noundef %1, ptr noundef nonnull %2) local_unnamed_addr #3 align 2 personality ptr @__gxx_personality_v0 {
  %4 = alloca %"class.cvc5::internal::NodeTemplate", align 8
  call void @llvm.lifetime.start.p0(i64 8, ptr nonnull %4) #13
  call void @_ZNK4cvc58internal12NodeTemplateILb0EE11getOperatorEv(ptr dead_on_unwind nonnull writable sret(%"class.cvc5::internal::NodeTemplate") align 8 %4, ptr noundef nonnull align 8 dereferenceable(8) %2)
  %5 = load ptr, ptr %4, align 8, !tbaa !34
  %6 = invoke noundef nonnull align 4 dereferenceable(8) ptr @_ZNK4cvc58internal4expr9NodeValue8getConstINS0_16BitVectorExtractEEERKT_v(ptr noundef nonnull align 8 dereferenceable(24) %5)
          to label %_ZNK4cvc58internal12NodeTemplateILb1EE8getConstINS0_16BitVectorExtractEEERKT_v.exit unwind label %22

_ZNK4cvc58internal12NodeTemplateILb1EE8getConstINS0_16BitVectorExtractEEERKT_v.exit: ; preds = %3
  %.sroa.0.0.copyload = load i32, ptr %6, align 4, !tbaa !165
  %.sroa.5.0..sroa_idx = getelementptr inbounds nuw i8, ptr %6, i64 4
  %.sroa.5.0.copyload = load i32, ptr %.sroa.5.0..sroa_idx, align 4, !tbaa !165
  %7 = load ptr, ptr %4, align 8, !tbaa !34
  %8 = load i64, ptr %7, align 8
  %9 = and i64 %8, 1152920405095219200
  %.not.i.i = icmp eq i64 %9, 1152920405095219200
  br i1 %.not.i.i, label %_ZN4cvc58internal12NodeTemplateILb1EED2Ev.exit, label %10, !prof !12

10:                                               ; preds = %_ZNK4cvc58internal12NodeTemplateILb1EE8getConstINS0_16BitVectorExtractEEERKT_v.exit
  %11 = add i64 %8, 1152920405095219200
  %12 = and i64 %11, 1152920405095219200
  %13 = and i64 %8, -1152920405095219201
  %14 = or disjoint i64 %12, %13
  store i64 %14, ptr %7, align 8
  %15 = icmp eq i64 %12, 0
  br i1 %15, label %16, label %_ZN4cvc58internal12NodeTemplateILb1EED2Ev.exit, !prof !12

16:                                               ; preds = %10
  invoke void @_ZN4cvc58internal4expr9NodeValue15markForDeletionEv(ptr noundef nonnull align 8 dereferenceable(24) %7)
          to label %_ZN4cvc58internal12NodeTemplateILb1EED2Ev.exit unwind label %17

17:                                               ; preds = %16
  %18 = landingpad { ptr, i32 }
          catch ptr null
  %19 = extractvalue { ptr, i32 } %18, 0
  call void @__clang_call_terminate(ptr %19) #14
  unreachable

_ZN4cvc58internal12NodeTemplateILb1EED2Ev.exit:   ; preds = %_ZNK4cvc58internal12NodeTemplateILb1EE8getConstINS0_16BitVectorExtractEEERKT_v.exit, %10, %16
  call void @llvm.lifetime.end.p0(i64 8, ptr nonnull %4) #13
  %20 = add i32 %.sroa.0.0.copyload, 1
  %21 = sub i32 %20, %.sroa.5.0.copyload
  call void @_ZN4cvc58internal11NodeManager15mkBitVectorTypeEj(ptr dead_on_unwind writable sret(%"class.cvc5::internal::TypeNode") align 8 %0, ptr noundef nonnull align 8 dereferenceable(3560) %1, i32 noundef %21)
  ret void

22:                                               ; preds = %3
  %23 = landingpad { ptr, i32 }
          cleanup
  call void @_ZN4cvc58internal12NodeTemplateILb1EED2Ev(ptr noundef nonnull align 8 dereferenceable(8) %4) #13
  call void @llvm.lifetime.end.p0(i64 8, ptr nonnull %4) #13
  resume { ptr, i32 } %23
}